; Function Attrs: mustprogress uwtable
define void @_ZN27MLRenderingPointsSizeActionC2EPS_P7QObject(ptr noundef nonnull align 8 dereferenceable(20) %0, ptr noundef nonnull %1, ptr noundef %2) unnamed_addr #9 align 2 personality ptr @__gxx_personality_v0 {
  %4 = alloca i8, align 1
  %5 = alloca %class.QVariant, align 8
  %6 = alloca %class.QString, align 8
  call void @llvm.lifetime.start.p0(i64 1, ptr nonnull %4)
  call void @llvm.lifetime.start.p0(i64 16, ptr nonnull %5)
  store i8 0, ptr %4, align 1
  call void @_ZNK7QAction4dataEv(ptr dead_on_unwind nonnull writable sret(%class.QVariant) align 8 %5, ptr noundef nonnull align 8 dereferenceable(16) %1)
  %7 = invoke noundef i32 @_ZNK8QVariant5toIntEPb(ptr noundef nonnull align 8 dereferenceable(16) %5, ptr noundef nonnull %4)
          to label %_ZNK17MLRenderingAction6meshIdEv.exit unwind label %8

common.resume:                                    ; preds = %23, %8
  %common.resume.op = phi { ptr, i32 } [ %9, %8 ], [ %.pn, %23 ]
  resume { ptr, i32 } %common.resume.op

8:                                                ; preds = %3
  %9 = landingpad { ptr, i32 }
          cleanup
  call void @_ZN8QVariantD1Ev(ptr noundef nonnull align 8 dereferenceable(16) %5) #21
  br label %common.resume

_ZNK17MLRenderingAction6meshIdEv.exit:            ; preds = %3
  call void @_ZN8QVariantD1Ev(ptr noundef nonnull align 8 dereferenceable(16) %5) #21
  call void @llvm.lifetime.end.p0(i64 1, ptr nonnull %4)
  call void @llvm.lifetime.end.p0(i64 16, ptr nonnull %5)
  call void @_ZN17MLRenderingActionC2EiP7QObject(ptr noundef nonnull align 8 dereferenceable(16) %0, i32 noundef %7, ptr noundef %2)
  store ptr getelementptr inbounds ({ [20 x ptr] }, ptr @_ZTV27MLRenderingPointsSizeAction, i64 0, i32 0, i64 2), ptr %0, align 8
  invoke void @_ZNK7QAction4textEv(ptr dead_on_unwind nonnull writable sret(%class.QString) align 8 %6, ptr noundef nonnull align 8 dereferenceable(16) %1)
          to label %10 unwind label %19

10:                                               ; preds = %_ZNK17MLRenderingAction6meshIdEv.exit
  invoke void @_ZN7QAction7setTextERK7QString(ptr noundef nonnull align 8 dereferenceable(16) %0, ptr noundef nonnull align 8 dereferenceable(8) %6)
          to label %11 unwind label %21

11:                                               ; preds = %10
  %12 = load ptr, ptr %6, align 8
  %13 = load atomic i32, ptr %12 monotonic, align 4
  switch i32 %13, label %_ZN9QtPrivate8RefCount5derefEv.exit.i [
    i32 0, label %_ZN9QtPrivate8RefCount5derefEv.exit.thread2.i
    i32 -1, label %_ZN7QStringD2Ev.exit
  ]

_ZN9QtPrivate8RefCount5derefEv.exit.i:            ; preds = %11
  %14 = atomicrmw sub ptr %12, i32 1 seq_cst, align 4
  %.not.i = icmp eq i32 %14, 1
  br i1 %.not.i, label %_ZN9QtPrivate8RefCount5derefEv.exit._ZN9QtPrivate8RefCount5derefEv.exit.thread2_crit_edge.i, label %_ZN7QStringD2Ev.exit

_ZN9QtPrivate8RefCount5derefEv.exit._ZN9QtPrivate8RefCount5derefEv.exit.thread2_crit_edge.i: ; preds = %_ZN9QtPrivate8RefCount5derefEv.exit.i
  %.pre.i = load ptr, ptr %6, align 8
  br label %_ZN9QtPrivate8RefCount5derefEv.exit.thread2.i

_ZN9QtPrivate8RefCount5derefEv.exit.thread2.i:    ; preds = %_ZN9QtPrivate8RefCount5derefEv.exit._ZN9QtPrivate8RefCount5derefEv.exit.thread2_crit_edge.i, %11
  %15 = phi ptr [ %.pre.i, %_ZN9QtPrivate8RefCount5derefEv.exit._ZN9QtPrivate8RefCount5derefEv.exit.thread2_crit_edge.i ], [ %12, %11 ]
  call void @_ZN10QArrayData10deallocateEPS_mm(ptr noundef %15, i64 noundef 2, i64 noundef 8) #21
  br label %_ZN7QStringD2Ev.exit

_ZN7QStringD2Ev.exit:                             ; preds = %11, %_ZN9QtPrivate8RefCount5derefEv.exit.i, %_ZN9QtPrivate8RefCount5derefEv.exit.thread2.i
  %16 = getelementptr inbounds i8, ptr %1, i64 16
  %17 = load float, ptr %16, align 8
  %18 = getelementptr inbounds i8, ptr %0, i64 16
  store float %17, ptr %18, align 8
  ret void

19:                                               ; preds = %_ZNK17MLRenderingAction6meshIdEv.exit
  %20 = landingpad { ptr, i32 }
          cleanup
  br label %23

21:                                               ; preds = %10
  %22 = landingpad { ptr, i32 }
          cleanup
  call void @_ZN7QStringD2Ev(ptr noundef nonnull align 8 dereferenceable(8) %6) #21
  br label %23

23:                                               ; preds = %21, %19
  %.pn = phi { ptr, i32 } [ %22, %21 ], [ %20, %19 ]
  call void @_ZN7QActionD2Ev(ptr noundef nonnull align 8 dereferenceable(16) %0) #21
  br label %common.resume
}